	.section	__TEXT,__text,regular,pure_instructions
	.macosx_version_min 10, 7
	.p2align	4, 0x90
__ZN3std10sys_common9backtrace28__rust_begin_short_backtrace17h5472c873967227b0E:
Lfunc_begin0:
	.file	1 "/Users/tchen/.rustup/toolchains/stable-x86_64-apple-darwin/lib/rustlib/src/rust/library/std/src/sys_common/backtrace.rs"
	.loc	1 121 0
	.cfi_startproc
	.cfi_personality 155, _rust_eh_personality
	.cfi_lsda 16, Lexception0
	pushq	%rbp
	.cfi_def_cfa_offset 16
	.cfi_offset %rbp, -16
	movq	%rsp, %rbp
	.cfi_def_cfa_register %rbp
	subq	$48, %rsp
	movq	%rdi, -24(%rbp)
Ltmp3:
	.loc	1 125 18 prologue_end
	callq	__ZN4core3ops8function6FnOnce9call_once17h683c3ede57be420eE
Ltmp0:
Ltmp4:
	.loc	1 128 5
	callq	__ZN4core4hint9black_box17h3f2328ddbd61b373E
Ltmp1:
	jmp	LBB0_2
Ltmp5:
LBB0_2:
	.loc	1 131 2
	addq	$48, %rsp
	popq	%rbp
	retq
LBB0_3:
	.loc	1 131 1 is_stmt 0
	jmp	LBB0_4
LBB0_4:
	.loc	1 121 1 is_stmt 1
	movq	-16(%rbp), %rdi
	callq	__Unwind_Resume
	ud2
Ltmp6:
LBB0_5:
Ltmp2:
	.loc	1 0 1 is_stmt 0
	movq	%rax, -16(%rbp)
	movl	%edx, -8(%rbp)
	jmp	LBB0_3
Lfunc_end0:
	.cfi_endproc
	.section	__TEXT,__gcc_except_tab
	.p2align	2
GCC_except_table0:
Lexception0:
	.byte	255
	.byte	255
	.byte	1
	.uleb128 Lcst_end0-Lcst_begin0
Lcst_begin0:
	.uleb128 Lfunc_begin0-Lfunc_begin0
	.uleb128 Ltmp0-Lfunc_begin0
	.byte	0
	.byte	0
	.uleb128 Ltmp0-Lfunc_begin0
	.uleb128 Ltmp1-Ltmp0
	.uleb128 Ltmp2-Lfunc_begin0
	.byte	0
	.uleb128 Ltmp1-Lfunc_begin0
	.uleb128 Lfunc_end0-Ltmp1
	.byte	0
	.byte	0
Lcst_end0:
	.p2align	2

	.section	__TEXT,__text,regular,pure_instructions
	.private_extern	__ZN3std2rt10lang_start17h4caa46d899550d98E
	.globl	__ZN3std2rt10lang_start17h4caa46d899550d98E
	.p2align	4, 0x90
__ZN3std2rt10lang_start17h4caa46d899550d98E:
Lfunc_begin1:
	.file	2 "/Users/tchen/.rustup/toolchains/stable-x86_64-apple-darwin/lib/rustlib/src/rust/library/std/src/rt.rs"
	.loc	2 60 0 is_stmt 1
	.cfi_startproc
	pushq	%rbp
	.cfi_def_cfa_offset 16
	.cfi_offset %rbp, -16
	movq	%rsp, %rbp
	.cfi_def_cfa_register %rbp
	subq	$64, %rsp
	leaq	l___unnamed_1(%rip), %rax
	movq	%rdi, -24(%rbp)
	movq	%rsi, -16(%rbp)
	movq	%rdx, -8(%rbp)
Ltmp7:
	.loc	2 66 10 prologue_end
	movq	%rdi, -32(%rbp)
	.loc	2 66 9 is_stmt 0
	leaq	-32(%rbp), %rcx
	.loc	2 65 5 is_stmt 1
	movq	%rcx, %rdi
	movq	%rsi, -40(%rbp)
	movq	%rax, %rsi
	movq	-40(%rbp), %rax
	movq	%rdx, -48(%rbp)
	movq	%rax, %rdx
	movq	-48(%rbp), %rcx
	callq	__ZN3std2rt19lang_start_internal17h86f505dc7de50d93E
	movq	%rax, -56(%rbp)
	.loc	2 0 5 is_stmt 0
	movq	-56(%rbp), %rax
	.loc	2 70 2 is_stmt 1
	addq	$64, %rsp
	popq	%rbp
	retq
Ltmp8:
Lfunc_end1:
	.cfi_endproc

	.p2align	4, 0x90
__ZN3std2rt10lang_start28_$u7b$$u7b$closure$u7d$$u7d$17h39df29d0fee81e1eE:
Lfunc_begin2:
	.loc	2 66 0
	.cfi_startproc
	pushq	%rbp
	.cfi_def_cfa_offset 16
	.cfi_offset %rbp, -16
	movq	%rsp, %rbp
	.cfi_def_cfa_register %rbp
	subq	$16, %rsp
	movq	%rdi, -8(%rbp)
Ltmp9:
	.loc	2 66 77 prologue_end
	movq	(%rdi), %rdi
	.loc	2 66 18 is_stmt 0
	callq	__ZN3std10sys_common9backtrace28__rust_begin_short_backtrace17h5472c873967227b0E
	callq	__ZN54_$LT$$LP$$RP$$u20$as$u20$std..process..Termination$GT$6report17hba63e1989e7bb043E
	movl	%eax, -12(%rbp)
	.loc	2 0 18
	movl	-12(%rbp), %eax
	.loc	2 66 91
	addq	$16, %rsp
	popq	%rbp
	retq
Ltmp10:
Lfunc_end2:
	.cfi_endproc

	.p2align	4, 0x90
__ZN3std3sys4unix7process14process_common8ExitCode6as_i3217h5193a79422012651E:
Lfunc_begin3:
	.file	3 "/Users/tchen/.rustup/toolchains/stable-x86_64-apple-darwin/lib/rustlib/src/rust/library/std/src/sys/unix/process/process_common.rs"
	.loc	3 438 0 is_stmt 1
	.cfi_startproc
	pushq	%rbp
	.cfi_def_cfa_offset 16
	.cfi_offset %rbp, -16
	movq	%rsp, %rbp
	.cfi_def_cfa_register %rbp
	pushq	%rax
	movq	%rdi, -8(%rbp)
Ltmp11:
	.loc	3 439 9 prologue_end
	movzbl	(%rdi), %eax
	.loc	3 440 6
	addq	$8, %rsp
	popq	%rbp
	retq
Ltmp12:
Lfunc_end3:
	.cfi_endproc

	.p2align	4, 0x90
__ZN4core3fmt10ArgumentV13new17h19c824d6b33ce84eE:
Lfunc_begin4:
	.file	4 "/Users/tchen/.rustup/toolchains/stable-x86_64-apple-darwin/lib/rustlib/src/rust/library/core/src/fmt/mod.rs"
	.loc	4 267 0
	.cfi_startproc
	pushq	%rbp
	.cfi_def_cfa_offset 16
	.cfi_offset %rbp, -16
	movq	%rsp, %rbp
	.cfi_def_cfa_register %rbp
	subq	$72, %rsp
	movq	%rdi, -32(%rbp)
	movq	%rsi, -24(%rbp)
Ltmp13:
	.loc	4 276 42 prologue_end
	movq	%rsi, -16(%rbp)
	movq	-16(%rbp), %rax
	movq	%rdi, -56(%rbp)
	movq	%rax, -64(%rbp)
	.loc	4 0 42 is_stmt 0
	movq	-56(%rbp), %rax
	.loc	4 276 68
	movq	%rax, -8(%rbp)
	movq	-8(%rbp), %rax
	movq	%rax, -72(%rbp)
	.loc	4 0 68
	movq	-72(%rbp), %rax
	.loc	4 276 18
	movq	%rax, -48(%rbp)
	movq	-64(%rbp), %rcx
	movq	%rcx, -40(%rbp)
	.loc	4 277 6 is_stmt 1
	movq	-48(%rbp), %rax
	movq	-40(%rbp), %rdx
	addq	$72, %rsp
	popq	%rbp
	retq
Ltmp14:
Lfunc_end4:
	.cfi_endproc

	.p2align	4, 0x90
__ZN4core3fmt3num52_$LT$impl$u20$core..fmt..Debug$u20$for$u20$usize$GT$3fmt17h40a2eb713cf4428eE:
Lfunc_begin5:
	.file	5 "/Users/tchen/.rustup/toolchains/stable-x86_64-apple-darwin/lib/rustlib/src/rust/library/core/src/fmt/num.rs"
	.loc	5 185 0
	.cfi_startproc
	pushq	%rbp
	.cfi_def_cfa_offset 16
	.cfi_offset %rbp, -16
	movq	%rsp, %rbp
	.cfi_def_cfa_register %rbp
	subq	$48, %rsp
	movq	%rdi, -16(%rbp)
	movq	%rsi, -8(%rbp)
	movq	%rdi, -32(%rbp)
Ltmp15:
	.loc	5 186 20 prologue_end
	movq	%rsi, %rdi
	movq	%rsi, -40(%rbp)
	callq	__ZN4core3fmt9Formatter15debug_lower_hex17h711d6e847f2fb68dE
	movb	%al, -41(%rbp)
	.loc	5 0 20 is_stmt 0
	movb	-41(%rbp), %al
	.loc	5 186 17
	testb	$1, %al
	jne	LBB5_2
	jmp	LBB5_3
LBB5_2:
	.loc	5 0 17
	movq	-32(%rbp), %rdi
	movq	-40(%rbp), %rsi
	.loc	5 187 21 is_stmt 1
	callq	__ZN4core3fmt3num55_$LT$impl$u20$core..fmt..LowerHex$u20$for$u20$usize$GT$3fmt17hd85567a5614f1f15E
	andb	$1, %al
	movb	%al, -17(%rbp)
	jmp	LBB5_4
LBB5_3:
	.loc	5 0 21 is_stmt 0
	movq	-40(%rbp), %rdi
	.loc	5 188 27 is_stmt 1
	callq	__ZN4core3fmt9Formatter15debug_upper_hex17h699081381c0e441bE
	movb	%al, -42(%rbp)
	jmp	LBB5_5
LBB5_4:
	.loc	5 186 17
	jmp	LBB5_11
LBB5_5:
	.loc	5 0 17 is_stmt 0
	movb	-42(%rbp), %al
	.loc	5 188 24 is_stmt 1
	testb	$1, %al
	jne	LBB5_6
	jmp	LBB5_7
LBB5_6:
	.loc	5 0 24 is_stmt 0
	movq	-32(%rbp), %rdi
	movq	-40(%rbp), %rsi
	.loc	5 189 21 is_stmt 1
	callq	__ZN4core3fmt3num55_$LT$impl$u20$core..fmt..UpperHex$u20$for$u20$usize$GT$3fmt17h16e9342ec3f451c5E
	andb	$1, %al
	movb	%al, -17(%rbp)
	jmp	LBB5_8
LBB5_7:
	.loc	5 0 21 is_stmt 0
	movq	-32(%rbp), %rdi
	movq	-40(%rbp), %rsi
	.loc	5 191 21 is_stmt 1
	callq	__ZN4core3fmt3num3imp54_$LT$impl$u20$core..fmt..Display$u20$for$u20$usize$GT$3fmt17h5e5dc183b103235dE
	andb	$1, %al
	movb	%al, -17(%rbp)
	jmp	LBB5_9
LBB5_8:
	.loc	5 188 24
	jmp	LBB5_10
LBB5_9:
	jmp	LBB5_10
LBB5_10:
	.loc	5 186 17
	jmp	LBB5_11
LBB5_11:
	.loc	5 193 14
	movb	-17(%rbp), %al
	andb	$1, %al
	movzbl	%al, %eax
	addq	$48, %rsp
	popq	%rbp
	retq
Ltmp16:
Lfunc_end5:
	.cfi_endproc

	.p2align	4, 0x90
__ZN4core3fmt9Arguments6new_v117h8a0fa4a3ae033e15E:
Lfunc_begin6:
	.loc	4 313 0
	.cfi_startproc
	pushq	%rbp
	.cfi_def_cfa_offset 16
	.cfi_offset %rbp, -16
	movq	%rsp, %rbp
	.cfi_def_cfa_register %rbp
	subq	$48, %rsp
	movq	%rdi, %rax
	movq	%rsi, -32(%rbp)
	movq	%rdx, -24(%rbp)
	movq	%rcx, -16(%rbp)
	movq	%r8, -8(%rbp)
Ltmp17:
	.loc	4 314 34 prologue_end
	movq	$0, -48(%rbp)
	.loc	4 314 9 is_stmt 0
	movq	%rsi, (%rdi)
	movq	%rdx, 8(%rdi)
	movq	-48(%rbp), %rdx
	movq	-40(%rbp), %rsi
	movq	%rdx, 16(%rdi)
	movq	%rsi, 24(%rdi)
	movq	%rcx, 32(%rdi)
	movq	%r8, 40(%rdi)
	.loc	4 315 6 is_stmt 1
	addq	$48, %rsp
	popq	%rbp
	retq
Ltmp18:
Lfunc_end6:
	.cfi_endproc

	.p2align	4, 0x90
__ZN4core3ops8function6FnOnce40call_once$u7b$$u7b$vtable.shim$u7d$$u7d$17h080ec6d6def2a24cE:
Lfunc_begin7:
	.file	6 "/Users/tchen/.rustup/toolchains/stable-x86_64-apple-darwin/lib/rustlib/src/rust/library/core/src/ops/function.rs"
	.loc	6 227 0
	.cfi_startproc
	pushq	%rbp
	.cfi_def_cfa_offset 16
	.cfi_offset %rbp, -16
	movq	%rsp, %rbp
	.cfi_def_cfa_register %rbp
	subq	$32, %rsp
	movq	%rdi, -8(%rbp)
Ltmp19:
	.loc	6 227 5 prologue_end
	movq	(%rdi), %rdi
	callq	__ZN4core3ops8function6FnOnce9call_once17hd751dbd7b8922d0fE
	movl	%eax, -20(%rbp)
	.loc	6 0 5 is_stmt 0
	movl	-20(%rbp), %eax
	.loc	6 227 5
	addq	$32, %rsp
	popq	%rbp
	retq
Ltmp20:
Lfunc_end7:
	.cfi_endproc

	.p2align	4, 0x90
__ZN4core3ops8function6FnOnce9call_once17h683c3ede57be420eE:
Lfunc_begin8:
	.loc	6 227 0 is_stmt 1
	.cfi_startproc
	pushq	%rbp
	.cfi_def_cfa_offset 16
	.cfi_offset %rbp, -16
	movq	%rsp, %rbp
	.cfi_def_cfa_register %rbp
	subq	$16, %rsp
	movq	%rdi, -8(%rbp)
Ltmp21:
	.loc	6 227 5 prologue_end
	callq	*%rdi
	addq	$16, %rsp
	popq	%rbp
	retq
Ltmp22:
Lfunc_end8:
	.cfi_endproc

	.p2align	4, 0x90
__ZN4core3ops8function6FnOnce9call_once17hd751dbd7b8922d0fE:
Lfunc_begin9:
	.loc	6 227 0
	.cfi_startproc
	.cfi_personality 155, _rust_eh_personality
	.cfi_lsda 16, Lexception1
	pushq	%rbp
	.cfi_def_cfa_offset 16
	.cfi_offset %rbp, -16
	movq	%rsp, %rbp
	.cfi_def_cfa_register %rbp
	subq	$48, %rsp
	movq	%rdi, -32(%rbp)
Ltmp23:
	leaq	-32(%rbp), %rdi
Ltmp26:
	.loc	6 227 5 prologue_end
	callq	__ZN3std2rt10lang_start28_$u7b$$u7b$closure$u7d$$u7d$17h39df29d0fee81e1eE
Ltmp24:
	movl	%eax, -36(%rbp)
	jmp	LBB9_1
LBB9_1:
	jmp	LBB9_2
LBB9_2:
	.loc	6 0 5 is_stmt 0
	movl	-36(%rbp), %eax
	.loc	6 227 5
	addq	$48, %rsp
	popq	%rbp
	retq
LBB9_3:
	jmp	LBB9_4
LBB9_4:
	movq	-16(%rbp), %rdi
	callq	__Unwind_Resume
	ud2
Ltmp27:
LBB9_5:
Ltmp25:
	.loc	6 0 5
	movq	%rax, -16(%rbp)
	movl	%edx, -8(%rbp)
	jmp	LBB9_3
Lfunc_end9:
	.cfi_endproc
	.section	__TEXT,__gcc_except_tab
	.p2align	2
GCC_except_table9:
Lexception1:
	.byte	255
	.byte	255
	.byte	1
	.uleb128 Lcst_end1-Lcst_begin1
Lcst_begin1:
	.uleb128 Ltmp23-Lfunc_begin9
	.uleb128 Ltmp24-Ltmp23
	.uleb128 Ltmp25-Lfunc_begin9
	.byte	0
	.uleb128 Ltmp24-Lfunc_begin9
	.uleb128 Lfunc_end9-Ltmp24
	.byte	0
	.byte	0
Lcst_end1:
	.p2align	2

	.section	__TEXT,__text,regular,pure_instructions
	.p2align	4, 0x90
__ZN4core3ptr85drop_in_place$LT$std..rt..lang_start$LT$$LP$$RP$$GT$..$u7b$$u7b$closure$u7d$$u7d$$GT$17hcd5aba0e684c50bdE:
Lfunc_begin10:
	.file	7 "/Users/tchen/.rustup/toolchains/stable-x86_64-apple-darwin/lib/rustlib/src/rust/library/core/src/ptr/mod.rs"
	.loc	7 179 0 is_stmt 1
	.cfi_startproc
	pushq	%rbp
	.cfi_def_cfa_offset 16
	.cfi_offset %rbp, -16
	movq	%rsp, %rbp
	.cfi_def_cfa_register %rbp
	subq	$16, %rsp
	movq	%rdi, -8(%rbp)
Ltmp28:
	.loc	7 179 1 prologue_end
	addq	$16, %rsp
	popq	%rbp
	retq
Ltmp29:
Lfunc_end10:
	.cfi_endproc

	.p2align	4, 0x90
__ZN4core4hint9black_box17h3f2328ddbd61b373E:
Lfunc_begin11:
	.file	8 "/Users/tchen/.rustup/toolchains/stable-x86_64-apple-darwin/lib/rustlib/src/rust/library/core/src/hint.rs"
	.loc	8 159 0
	.cfi_startproc
	pushq	%rbp
	.cfi_def_cfa_offset 16
	.cfi_offset %rbp, -16
	movq	%rsp, %rbp
	.cfi_def_cfa_register %rbp
	pushq	%rax
	leaq	-8(%rbp), %rax
Ltmp30:
	.loc	8 170 9 prologue_end
	## InlineAsm Start
	## InlineAsm End
	.loc	8 174 2
	addq	$8, %rsp
	popq	%rbp
	retq
Ltmp31:
Lfunc_end11:
	.cfi_endproc

	.p2align	4, 0x90
__ZN54_$LT$$LP$$RP$$u20$as$u20$std..process..Termination$GT$6report17hba63e1989e7bb043E:
Lfunc_begin12:
	.file	9 "/Users/tchen/.rustup/toolchains/stable-x86_64-apple-darwin/lib/rustlib/src/rust/library/std/src/process.rs"
	.loc	9 1828 0
	.cfi_startproc
	pushq	%rbp
	.cfi_def_cfa_offset 16
	.cfi_offset %rbp, -16
	movq	%rsp, %rbp
	.cfi_def_cfa_register %rbp
	subq	$16, %rsp
	xorl	%edi, %edi
Ltmp32:
	.loc	9 1829 9 prologue_end
	callq	__ZN68_$LT$std..process..ExitCode$u20$as$u20$std..process..Termination$GT$6report17h7735134e327cd395E
	movl	%eax, -12(%rbp)
	.loc	9 0 9 is_stmt 0
	movl	-12(%rbp), %eax
	.loc	9 1830 6 is_stmt 1
	addq	$16, %rsp
	popq	%rbp
	retq
Ltmp33:
Lfunc_end12:
	.cfi_endproc

	.p2align	4, 0x90
__ZN68_$LT$std..process..ExitCode$u20$as$u20$std..process..Termination$GT$6report17h7735134e327cd395E:
Lfunc_begin13:
	.loc	9 1862 0
	.cfi_startproc
	pushq	%rbp
	.cfi_def_cfa_offset 16
	.cfi_offset %rbp, -16
	movq	%rsp, %rbp
	.cfi_def_cfa_register %rbp
	subq	$16, %rsp
	movb	%dil, -1(%rbp)
Ltmp34:
	.loc	9 1863 9 prologue_end
	leaq	-1(%rbp), %rdi
Ltmp35:
	callq	__ZN3std3sys4unix7process14process_common8ExitCode6as_i3217h5193a79422012651E
Ltmp36:
	.loc	9 0 9 is_stmt 0
	movl	%eax, -8(%rbp)
	movl	-8(%rbp), %eax
	.loc	9 1864 6 is_stmt 1
	addq	$16, %rsp
	popq	%rbp
	retq
Ltmp37:
Lfunc_end13:
	.cfi_endproc

	.p2align	4, 0x90
__ZN10simple_asm4main17hc4bb5d0ec919f26cE:
Lfunc_begin14:
	.file	10 "/Users/tchen/projects/mycode/rust/rust-training/code/simple_asm/src/main.rs"
	.loc	10 1 0
	.cfi_startproc
	pushq	%rbp
	.cfi_def_cfa_offset 16
	.cfi_offset %rbp, -16
	movq	%rsp, %rbp
	.cfi_def_cfa_register %rbp
	subq	$128, %rsp
Ltmp38:
	.loc	10 2 24 prologue_end
	movl	$3735928559, %eax
	movq	%rax, -16(%rbp)
Ltmp39:
	.loc	10 3 30
	movq	%rax, %rdi
	callq	__ZN10simple_asm7process17ha5bf2b7c755a17d1E
	movq	%rax, -24(%rbp)
	.loc	10 3 5 is_stmt 0
	leaq	-24(%rbp), %rax
	movq	%rax, -32(%rbp)
	movq	-32(%rbp), %rax
	movq	%rax, -8(%rbp)
Ltmp40:
	.loc	10 3 5
	movq	%rax, %rdi
	leaq	__ZN4core3fmt3num52_$LT$impl$u20$core..fmt..Debug$u20$for$u20$usize$GT$3fmt17h40a2eb713cf4428eE(%rip), %rsi
	callq	__ZN4core3fmt10ArgumentV13new17h19c824d6b33ce84eE
	movq	%rax, -104(%rbp)
	movq	%rdx, -112(%rbp)
	.loc	10 0 5
	leaq	l___unnamed_2(%rip), %rax
	movq	-104(%rbp), %rcx
	.loc	10 3 5
	movq	%rcx, -48(%rbp)
	movq	-112(%rbp), %rdx
	movq	%rdx, -40(%rbp)
Ltmp41:
	.loc	10 3 5
	leaq	-48(%rbp), %rsi
	leaq	-96(%rbp), %rdi
	movq	%rsi, -120(%rbp)
	movq	%rax, %rsi
	movl	$2, %edx
	movq	-120(%rbp), %rcx
	movl	$1, %r8d
	callq	__ZN4core3fmt9Arguments6new_v117h8a0fa4a3ae033e15E
	leaq	-96(%rbp), %rdi
	callq	__ZN3std2io5stdio6_print17hea90da9dad6f182dE
Ltmp42:
	.loc	10 4 2 is_stmt 1
	addq	$128, %rsp
	popq	%rbp
	retq
Ltmp43:
Lfunc_end14:
	.cfi_endproc

	.p2align	4, 0x90
__ZN10simple_asm7process17ha5bf2b7c755a17d1E:
Lfunc_begin15:
	.loc	10 6 0
	.cfi_startproc
	pushq	%rbp
	.cfi_def_cfa_offset 16
	.cfi_offset %rbp, -16
	movq	%rsp, %rbp
	.cfi_def_cfa_register %rbp
	subq	$32, %rsp
	movq	%rdi, -8(%rbp)
Ltmp44:
	.loc	10 7 9 prologue_end
	movq	%rdi, %rax
	shrq	$16, %rax
	movq	%rdi, -16(%rbp)
	movq	%rax, -24(%rbp)
	.loc	10 0 9 is_stmt 0
	movq	-24(%rbp), %rax
	.loc	10 7 5
	cmpq	$0, %rax
	sete	%cl
	testb	$1, %cl
	jne	LBB15_3
	.loc	10 0 5
	movq	-16(%rbp), %rax
	.loc	10 7 5
	xorl	%ecx, %ecx
	movl	%ecx, %edx
	movq	-24(%rbp), %rsi
	divq	%rsi
	.loc	10 8 2 is_stmt 1
	movq	%rdx, %rax
	addq	$32, %rsp
	popq	%rbp
	retq
LBB15_3:
	.loc	10 7 5
	leaq	_str.0(%rip), %rdi
	leaq	l___unnamed_3(%rip), %rdx
	movl	$57, %esi
	callq	__ZN4core9panicking5panic17hfa08580418a71d7fE
Ltmp45:
Lfunc_end15:
	.cfi_endproc

	.globl	_main
	.p2align	4, 0x90
_main:
Lfunc_begin16:
	.cfi_startproc
	pushq	%rbp
	.cfi_def_cfa_offset 16
	.cfi_offset %rbp, -16
	movq	%rsp, %rbp
	.cfi_def_cfa_register %rbp
	subq	$16, %rsp
	movslq	%edi, %rax
	leaq	__ZN10simple_asm4main17hc4bb5d0ec919f26cE(%rip), %rdi
	movq	%rsi, -8(%rbp)
	movq	%rax, %rsi
	movq	-8(%rbp), %rdx
	callq	__ZN3std2rt10lang_start17h4caa46d899550d98E
	addq	$16, %rsp
	popq	%rbp
	retq
Lfunc_end16:
	.cfi_endproc

	.section	__DATA,__const
	.p2align	3
l___unnamed_1:
	.quad	__ZN4core3ptr85drop_in_place$LT$std..rt..lang_start$LT$$LP$$RP$$GT$..$u7b$$u7b$closure$u7d$$u7d$$GT$17hcd5aba0e684c50bdE
	.quad	8
	.quad	8
	.quad	__ZN3std2rt10lang_start28_$u7b$$u7b$closure$u7d$$u7d$17h39df29d0fee81e1eE
	.quad	__ZN3std2rt10lang_start28_$u7b$$u7b$closure$u7d$$u7d$17h39df29d0fee81e1eE
	.quad	__ZN4core3ops8function6FnOnce40call_once$u7b$$u7b$vtable.shim$u7d$$u7d$17h080ec6d6def2a24cE

	.section	__TEXT,__literal8,8byte_literals
L___unnamed_4:
	.ascii	"result: "

	.section	__TEXT,__const
l___unnamed_5:
	.byte	10

	.section	__DATA,__const
	.p2align	3
l___unnamed_2:
	.quad	L___unnamed_4
	.asciz	"\b\000\000\000\000\000\000"
	.quad	l___unnamed_5
	.asciz	"\001\000\000\000\000\000\000"

	.section	__TEXT,__const
l___unnamed_6:
	.ascii	"src/main.rs"

	.section	__DATA,__const
	.p2align	3
l___unnamed_3:
	.quad	l___unnamed_6
	.asciz	"\013\000\000\000\000\000\000\000\007\000\000\000\005\000\000"

	.section	__TEXT,__const
	.p2align	4
_str.0:
	.ascii	"attempt to calculate the remainder with a divisor of zero"

	.section	__DATA,__const
Lsec_end0:
	.section	__TEXT,__text,regular,pure_instructions
Lsec_end1: